; Function Attrs: mustprogress nounwind uwtable
define dso_local void @_ZN5clang23TestModuleFileExtensionD2Ev(ptr noundef nonnull align 8 dereferenceable(88) initializes((0, 8)) %0) unnamed_addr #0 align 2 {
  store ptr getelementptr inbounds nuw inrange(-16, 72) (i8, ptr @_ZTVN5clang23TestModuleFileExtensionE, i64 16), ptr %0, align 8
  %2 = getelementptr inbounds nuw i8, ptr %0, i64 56
  tail call void @_ZNSt7__cxx1112basic_stringIcSt11char_traitsIcESaIcEED1Ev(ptr noundef nonnull align 8 dereferenceable(32) %2) #15
  %3 = getelementptr inbounds nuw i8, ptr %0, i64 8
  tail call void @_ZNSt7__cxx1112basic_stringIcSt11char_traitsIcESaIcEED1Ev(ptr noundef nonnull align 8 dereferenceable(32) %3) #15
  tail call void @_ZN5clang19ModuleFileExtensionD2Ev(ptr noundef nonnull align 8 dereferenceable(8) %0) #15
  ret void
}